; Function Attrs: mustprogress uwtable
define void @_ZN5boost9unit_test15unit_test_log_t11test_finishEv(ptr nocapture nonnull readnone align 8 %0) unnamed_addr #4 align 2 personality ptr @__gxx_personality_v0 {
  %2 = load atomic i8, ptr @_ZGVZN5boost9unit_test12_GLOBAL__N_110s_log_implEvE8the_inst acquire, align 8
  %3 = icmp eq i8 %2, 0
  br i1 %3, label %4, label %_ZN5boost9unit_test12_GLOBAL__N_110s_log_implEv.exit, !prof !3

4:                                                ; preds = %1
  %5 = tail call i32 @__cxa_guard_acquire(ptr nonnull @_ZGVZN5boost9unit_test12_GLOBAL__N_110s_log_implEvE8the_inst) #27
  %.not.i = icmp eq i32 %5, 0
  br i1 %.not.i, label %_ZN5boost9unit_test12_GLOBAL__N_110s_log_implEv.exit, label %6

6:                                                ; preds = %4
  invoke fastcc void @_ZN5boost9unit_test12_GLOBAL__N_118unit_test_log_implC2Ev()
          to label %7 unwind label %9

7:                                                ; preds = %6
  %8 = tail call i32 @__cxa_atexit(ptr nonnull @_ZN5boost9unit_test12_GLOBAL__N_118unit_test_log_implD2Ev, ptr nonnull @_ZZN5boost9unit_test12_GLOBAL__N_110s_log_implEvE8the_inst, ptr nonnull @__dso_handle) #27
  tail call void @__cxa_guard_release(ptr nonnull @_ZGVZN5boost9unit_test12_GLOBAL__N_110s_log_implEvE8the_inst) #27
  br label %_ZN5boost9unit_test12_GLOBAL__N_110s_log_implEv.exit

9:                                                ; preds = %6
  %10 = landingpad { ptr, i32 }
          cleanup
  tail call void @__cxa_guard_abort(ptr nonnull @_ZGVZN5boost9unit_test12_GLOBAL__N_110s_log_implEvE8the_inst) #27
  resume { ptr, i32 } %10

_ZN5boost9unit_test12_GLOBAL__N_110s_log_implEv.exit: ; preds = %1, %4, %7
  %.val.i = load ptr, ptr getelementptr inbounds nuw (i8, ptr @_ZZN5boost9unit_test12_GLOBAL__N_110s_log_implEvE8the_inst, i64 24), align 8, !tbaa !4
  %.val.i9 = load ptr, ptr getelementptr inbounds nuw (i8, ptr @_ZZN5boost9unit_test12_GLOBAL__N_110s_log_implEvE8the_inst, i64 32), align 8, !tbaa !4
  %11 = icmp ult ptr %.val.i, %.val.i9
  br i1 %11, label %.lr.ph, label %._crit_edge

._crit_edge:                                      ; preds = %.lr.ph, %_ZN5boost9unit_test12_GLOBAL__N_110s_log_implEv.exit
  ret void

.lr.ph:                                           ; preds = %_ZN5boost9unit_test12_GLOBAL__N_110s_log_implEv.exit, %.lr.ph
  %.sroa.010.011 = phi ptr [ %20, %.lr.ph ], [ %.val.i, %_ZN5boost9unit_test12_GLOBAL__N_110s_log_implEv.exit ]
  %12 = load ptr, ptr %.sroa.010.011, align 8, !tbaa !4
  %13 = getelementptr inbounds nuw i8, ptr %12, i64 32
  %14 = load ptr, ptr %13, align 8, !tbaa !30
  %15 = getelementptr i8, ptr %12, i64 8
  %.val8 = load ptr, ptr %15, align 8, !tbaa !35
  %16 = load ptr, ptr %14, align 8, !tbaa !33
  %17 = getelementptr inbounds i8, ptr %16, i64 24
  %18 = load ptr, ptr %17, align 8
  tail call void %18(ptr noundef nonnull align 8 dereferenceable(12) %14, ptr noundef nonnull align 8 dereferenceable(8) %.val8)
  %.val7 = load ptr, ptr %15, align 8, !tbaa !35
  %19 = tail call noundef nonnull align 8 dereferenceable(8) ptr @_ZNSo5flushEv(ptr noundef nonnull align 8 dereferenceable(8) %.val7)
  %20 = getelementptr inbounds nuw i8, ptr %.sroa.010.011, i64 8
  %21 = icmp ult ptr %20, %.val.i9
  br i1 %21, label %.lr.ph, label %._crit_edge, !llvm.loop !58
}